; Function Attrs: mustprogress norecurse uwtable
define internal fastcc void @_ZL14_OpenAndExportRKNSt7__cxx1112basic_stringIcSt11char_traitsIcESaIcEEE(ptr noundef nonnull align 8 dereferenceable(32) %0) unnamed_addr #0 personality ptr @__gxx_personality_v0 {
  %2 = alloca %"struct.pxrInternal_v0_24__pxrReserved__::Tf_DiagnosticLiteHelper", align 8
  %3 = alloca %"class.pxrInternal_v0_24__pxrReserved__::TfCallContext", align 8
  %4 = alloca %"struct.pxrInternal_v0_24__pxrReserved__::Tf_DiagnosticLiteHelper", align 8
  %5 = alloca %"class.pxrInternal_v0_24__pxrReserved__::TfRefPtr", align 8
  %6 = alloca %"class.std::__cxx11::basic_string", align 8
  %7 = tail call noundef ptr @_ZNKSt7__cxx1112basic_stringIcSt11char_traitsIcESaIcEE5c_strEv(ptr noundef nonnull align 8 dereferenceable(32) %0) #11
  %8 = tail call i32 (ptr, ...) @printf(ptr noundef nonnull dereferenceable(1) @.str.2, ptr noundef %7)
  call void @_ZN32pxrInternal_v0_24__pxrReserved__8UsdStage4OpenERKNSt7__cxx1112basic_stringIcSt11char_traitsIcESaIcEEENS0_14InitialLoadSetE(ptr dead_on_unwind nonnull writable sret(%"class.pxrInternal_v0_24__pxrReserved__::TfRefPtr") align 8 %5, ptr noundef nonnull align 8 dereferenceable(32) %0, i32 noundef 0)
  %9 = load ptr, ptr %5, align 8
  %.not.i = icmp eq ptr %9, null
  call void @llvm.lifetime.start.p0(i64 48, ptr nonnull %4)
  br i1 %.not.i, label %10, label %12

10:                                               ; preds = %1
  store ptr @.str.3, ptr %4, align 8
  %.sroa.212.0..sroa_idx = getelementptr inbounds nuw i8, ptr %4, i64 8
  store ptr @__func__._ZL14_OpenAndExportRKNSt7__cxx1112basic_stringIcSt11char_traitsIcESaIcEEE, ptr %.sroa.212.0..sroa_idx, align 8
  %.sroa.313.0..sroa_idx = getelementptr inbounds nuw i8, ptr %4, i64 16
  store i64 30, ptr %.sroa.313.0..sroa_idx, align 8
  %.sroa.414.0..sroa_idx = getelementptr inbounds nuw i8, ptr %4, i64 24
  store ptr @__PRETTY_FUNCTION__._ZL14_OpenAndExportRKNSt7__cxx1112basic_stringIcSt11char_traitsIcESaIcEEE, ptr %.sroa.414.0..sroa_idx, align 8
  %.sroa.515.0..sroa_idx = getelementptr inbounds nuw i8, ptr %4, i64 32
  store i8 0, ptr %.sroa.515.0..sroa_idx, align 8
  %11 = getelementptr inbounds nuw i8, ptr %4, i64 40
  store i32 4, ptr %11, align 8
  invoke void (ptr, ptr, ...) @_ZNK32pxrInternal_v0_24__pxrReserved__23Tf_DiagnosticLiteHelper15IssueFatalErrorEPKcz(ptr noundef nonnull align 8 dereferenceable(44) %4, ptr noundef nonnull @.str.9, ptr noundef nonnull @.str.4) #13
          to label %.noexc unwind label %51

.noexc:                                           ; preds = %10
  unreachable

12:                                               ; preds = %1
  call void @llvm.lifetime.end.p0(i64 48, ptr nonnull %4)
  %puts = call i32 @puts(ptr nonnull dereferenceable(1) @str)
  call void @_ZNSt7__cxx1112basic_stringIcSt11char_traitsIcESaIcEEC1Ev(ptr noundef nonnull align 8 dereferenceable(32) %6) #11
  call void @llvm.lifetime.start.p0(i64 40, ptr nonnull %3)
  %13 = load ptr, ptr %5, align 8
  %.not.i7 = icmp eq ptr %13, null
  br i1 %.not.i7, label %14, label %19

14:                                               ; preds = %12
  store ptr @.str.10, ptr %3, align 8
  %15 = getelementptr inbounds nuw i8, ptr %3, i64 8
  store ptr @__func__._ZNK32pxrInternal_v0_24__pxrReserved__8TfRefPtrINS_8UsdStageEEptEv, ptr %15, align 8
  %16 = getelementptr inbounds nuw i8, ptr %3, i64 16
  store i64 936, ptr %16, align 8
  %17 = getelementptr inbounds nuw i8, ptr %3, i64 24
  store ptr @__PRETTY_FUNCTION__._ZNK32pxrInternal_v0_24__pxrReserved__8TfRefPtrINS_8UsdStageEEptEv, ptr %17, align 8
  %18 = getelementptr inbounds nuw i8, ptr %3, i64 32
  store i8 0, ptr %18, align 8
  invoke void @_ZN32pxrInternal_v0_24__pxrReserved__40Tf_PostNullSmartPtrDereferenceFatalErrorERKNS_13TfCallContextEPKc(ptr noundef nonnull align 8 dereferenceable(33) %3, ptr noundef nonnull @_ZTSN32pxrInternal_v0_24__pxrReserved__8TfRefPtrINS_8UsdStageEEE) #13
          to label %.noexc8 unwind label %53

.noexc8:                                          ; preds = %14
  unreachable

19:                                               ; preds = %12
  call void @llvm.lifetime.end.p0(i64 40, ptr nonnull %3)
  %20 = invoke noundef zeroext i1 @_ZNK32pxrInternal_v0_24__pxrReserved__8UsdStage14ExportToStringEPNSt7__cxx1112basic_stringIcSt11char_traitsIcESaIcEEEb(ptr noundef nonnull align 8 dereferenceable(1282) %13, ptr noundef nonnull %6, i1 noundef zeroext true)
          to label %21 unwind label %53

21:                                               ; preds = %19
  call void @llvm.lifetime.start.p0(i64 48, ptr nonnull %2)
  br i1 %20, label %24, label %22

22:                                               ; preds = %21
  store ptr @.str.3, ptr %2, align 8
  %.sroa.2.0..sroa_idx = getelementptr inbounds nuw i8, ptr %2, i64 8
  store ptr @__func__._ZL14_OpenAndExportRKNSt7__cxx1112basic_stringIcSt11char_traitsIcESaIcEEE, ptr %.sroa.2.0..sroa_idx, align 8
  %.sroa.3.0..sroa_idx = getelementptr inbounds nuw i8, ptr %2, i64 16
  store i64 35, ptr %.sroa.3.0..sroa_idx, align 8
  %.sroa.4.0..sroa_idx = getelementptr inbounds nuw i8, ptr %2, i64 24
  store ptr @__PRETTY_FUNCTION__._ZL14_OpenAndExportRKNSt7__cxx1112basic_stringIcSt11char_traitsIcESaIcEEE, ptr %.sroa.4.0..sroa_idx, align 8
  %.sroa.5.0..sroa_idx = getelementptr inbounds nuw i8, ptr %2, i64 32
  store i8 0, ptr %.sroa.5.0..sroa_idx, align 8
  %23 = getelementptr inbounds nuw i8, ptr %2, i64 40
  store i32 4, ptr %23, align 8
  invoke void (ptr, ptr, ...) @_ZNK32pxrInternal_v0_24__pxrReserved__23Tf_DiagnosticLiteHelper15IssueFatalErrorEPKcz(ptr noundef nonnull align 8 dereferenceable(44) %2, ptr noundef nonnull @.str.9, ptr noundef nonnull @.str.6) #13
          to label %.noexc9 unwind label %53

.noexc9:                                          ; preds = %22
  unreachable

24:                                               ; preds = %21
  call void @llvm.lifetime.end.p0(i64 48, ptr nonnull %2)
  %25 = call noundef ptr @_ZNKSt7__cxx1112basic_stringIcSt11char_traitsIcESaIcEE5c_strEv(ptr noundef nonnull align 8 dereferenceable(32) %6) #11
  %26 = call i32 (ptr, ...) @printf(ptr noundef nonnull dereferenceable(1) @.str.7, ptr noundef %25)
  %puts6 = call i32 @puts(ptr nonnull dereferenceable(1) @str.1)
  call void @_ZNSt7__cxx1112basic_stringIcSt11char_traitsIcESaIcEED1Ev(ptr noundef nonnull align 8 dereferenceable(32) %6) #11
  %27 = load ptr, ptr %5, align 8
  %.not.i.i.i = icmp eq ptr %27, null
  br i1 %.not.i.i.i, label %_ZN32pxrInternal_v0_24__pxrReserved__8TfRefPtrINS_8UsdStageEED2Ev.exit, label %28

28:                                               ; preds = %24
  %29 = getelementptr inbounds nuw i8, ptr %27, i64 8
  %30 = load atomic i32, ptr %29 monotonic, align 4
  %31 = icmp slt i32 %30, 0
  br i1 %31, label %32, label %_ZN32pxrInternal_v0_24__pxrReserved__30Tf_RefPtr_UniqueChangedCounter9RemoveRefEPKNS_9TfRefBaseE.exit.i.i

32:                                               ; preds = %28
  %.not68.i.i.i = icmp eq i32 %30, -2
  br i1 %.not68.i.i.i, label %40, label %33

33:                                               ; preds = %32
  %34 = add nsw i32 %30, 1
  %35 = cmpxchg weak ptr %29, i32 %30, i32 %34 release monotonic, align 4
  %36 = extractvalue { i32, i1 } %35, 1
  %37 = extractvalue { i32, i1 } %35, 0
  br i1 %36, label %38, label %40

38:                                               ; preds = %33
  %39 = icmp eq i32 %30, -1
  br i1 %39, label %44, label %_ZN32pxrInternal_v0_24__pxrReserved__8TfRefPtrINS_8UsdStageEED2Ev.exit

40:                                               ; preds = %33, %32
  %.067.i.i.i = phi i32 [ %37, %33 ], [ -2, %32 ]
  %41 = invoke noundef zeroext i1 @_ZN32pxrInternal_v0_24__pxrReserved__30Tf_RefPtr_UniqueChangedCounter21_RemoveRefMaybeLockedEPKNS_9TfRefBaseEi(ptr noundef nonnull %27, i32 noundef %.067.i.i.i)
          to label %.noexc.i unwind label %48

.noexc.i:                                         ; preds = %40
  br i1 %41, label %44, label %_ZN32pxrInternal_v0_24__pxrReserved__8TfRefPtrINS_8UsdStageEED2Ev.exit

_ZN32pxrInternal_v0_24__pxrReserved__30Tf_RefPtr_UniqueChangedCounter9RemoveRefEPKNS_9TfRefBaseE.exit.i.i: ; preds = %28
  %42 = atomicrmw sub ptr %29, i32 1 release, align 4
  %43 = icmp eq i32 %42, 1
  br i1 %43, label %44, label %_ZN32pxrInternal_v0_24__pxrReserved__8TfRefPtrINS_8UsdStageEED2Ev.exit

44:                                               ; preds = %_ZN32pxrInternal_v0_24__pxrReserved__30Tf_RefPtr_UniqueChangedCounter9RemoveRefEPKNS_9TfRefBaseE.exit.i.i, %.noexc.i, %38
  %45 = load ptr, ptr %27, align 8
  %46 = getelementptr inbounds nuw i8, ptr %45, i64 8
  %47 = load ptr, ptr %46, align 8
  call void %47(ptr noundef nonnull align 8 dereferenceable(12) %27) #11
  br label %_ZN32pxrInternal_v0_24__pxrReserved__8TfRefPtrINS_8UsdStageEED2Ev.exit

48:                                               ; preds = %40
  %49 = landingpad { ptr, i32 }
          catch ptr null
  %50 = extractvalue { ptr, i32 } %49, 0
  call void @__clang_call_terminate(ptr %50) #12
  unreachable

_ZN32pxrInternal_v0_24__pxrReserved__8TfRefPtrINS_8UsdStageEED2Ev.exit: ; preds = %24, %38, %.noexc.i, %_ZN32pxrInternal_v0_24__pxrReserved__30Tf_RefPtr_UniqueChangedCounter9RemoveRefEPKNS_9TfRefBaseE.exit.i.i, %44
  ret void

51:                                               ; preds = %10
  %52 = landingpad { ptr, i32 }
          cleanup
  br label %55

53:                                               ; preds = %22, %14, %19
  %54 = landingpad { ptr, i32 }
          cleanup
  call void @_ZNSt7__cxx1112basic_stringIcSt11char_traitsIcESaIcEED1Ev(ptr noundef nonnull align 8 dereferenceable(32) %6) #11
  br label %55

55:                                               ; preds = %53, %51
  %.pn = phi { ptr, i32 } [ %54, %53 ], [ %52, %51 ]
  call void @_ZN32pxrInternal_v0_24__pxrReserved__8TfRefPtrINS_8UsdStageEED2Ev(ptr noundef nonnull align 8 dereferenceable(8) %5) #11
  resume { ptr, i32 } %.pn
}